target datalayout = "e-m:e-p270:32:32-p271:32:32-p272:64:64-i64:64-i128:128-f80:128-n8:16:32:64-S128"
target triple = "x86_64-pc-linux-gnu"

%struct.opj_j2k = type { i32, %union.anon, ptr, ptr, %struct.opj_cp, ptr, ptr, ptr, i32, ptr, ptr, i32, i32, i32 }
%union.anon = type { %struct.opj_j2k_dec }
%struct.opj_j2k_dec = type { i32, ptr, ptr, i32, i32, i32, i32, i32, i32, i32, i64, i32, i32, ptr, %struct.opj_j2k_tlm_info, i32, i32, ptr, i8 }
%struct.opj_j2k_tlm_info = type { i32, ptr, i32 }
%struct.opj_cp = type { i16, i32, i32, i32, i32, ptr, i32, i32, i32, ptr, ptr, i32, i32, ptr, ptr, ptr, i32, i32, i32, ptr, %union.anon.0, i32, i8 }
%union.anon.0 = type { %struct.opj_encoding_param }
%struct.opj_encoding_param = type { i32, i32, ptr, i8, i32, i8 }
%struct.opj_j2k_enc = type { i32, i32, i32, i32, i64, ptr, ptr, i32, ptr, i32, ptr, i32, i32, i32, i32 }

; Function Attrs: nounwind uwtable
define internal i32 @opj_j2k_write_updated_tlm(ptr noundef %0, ptr noundef %1, ptr noundef %2) #0 {
  %4 = alloca i32, align 4
  %5 = alloca ptr, align 8
  %6 = alloca ptr, align 8
  %7 = alloca ptr, align 8
  %8 = alloca i32, align 4
  %9 = alloca i64, align 8
  %10 = alloca i64, align 8
  %11 = alloca i32, align 4
  %12 = alloca i32, align 4
  store ptr %0, ptr %5, align 8, !tbaa !14
  store ptr %1, ptr %6, align 8, !tbaa !206
  store ptr %2, ptr %7, align 8, !tbaa !48
  call void @llvm.lifetime.start.p0(i64 4, ptr %8) #10
  call void @llvm.lifetime.start.p0(i64 8, ptr %9) #10
  call void @llvm.lifetime.start.p0(i64 8, ptr %10) #10
  call void @llvm.lifetime.start.p0(i64 4, ptr %11) #10
  %13 = load ptr, ptr %5, align 8, !tbaa !14
  %14 = getelementptr inbounds nuw %struct.opj_j2k, ptr %13, i32 0, i32 1
  %15 = getelementptr inbounds nuw %struct.opj_j2k_enc, ptr %14, i32 0, i32 3
  %16 = load i32, ptr %15, align 4, !tbaa !20
  %17 = icmp ne i32 %16, 0
  %18 = select i1 %17, i32 5, i32 6
  store i32 %18, ptr %11, align 4, !tbaa !3
  %19 = load i32, ptr %11, align 4, !tbaa !3
  %20 = load ptr, ptr %5, align 8, !tbaa !14
  %21 = getelementptr inbounds nuw %struct.opj_j2k, ptr %20, i32 0, i32 1
  %22 = getelementptr inbounds nuw %struct.opj_j2k_enc, ptr %21, i32 0, i32 7
  %23 = load i32, ptr %22, align 8, !tbaa !20
  %24 = mul i32 %19, %23
  store i32 %24, ptr %8, align 4, !tbaa !3
  %25 = load ptr, ptr %5, align 8, !tbaa !14
  %26 = getelementptr inbounds nuw %struct.opj_j2k, ptr %25, i32 0, i32 1
  %27 = getelementptr inbounds nuw %struct.opj_j2k_enc, ptr %26, i32 0, i32 4
  %28 = load i64, ptr %27, align 8, !tbaa !20
  %29 = add nsw i64 6, %28
  store i64 %29, ptr %9, align 8, !tbaa !85
  %30 = load ptr, ptr %6, align 8, !tbaa !206
  %31 = call i64 @opj_stream_tell(ptr noundef %30)
  store i64 %31, ptr %10, align 8, !tbaa !85
  %32 = load ptr, ptr %6, align 8, !tbaa !206
  %33 = load i64, ptr %9, align 8, !tbaa !85
  %34 = load ptr, ptr %7, align 8, !tbaa !48
  %35 = call i32 @opj_stream_seek(ptr noundef %32, i64 noundef %33, ptr noundef %34)
  %36 = icmp ne i32 %35, 0
  br i1 %36, label %38, label %37

37:                                               ; preds = %3
  store i32 0, ptr %4, align 4
  store i32 1, ptr %12, align 4
  br label %60

38:                                               ; preds = %3
  %39 = load ptr, ptr %6, align 8, !tbaa !206
  %40 = load ptr, ptr %5, align 8, !tbaa !14
  %41 = getelementptr inbounds nuw %struct.opj_j2k, ptr %40, i32 0, i32 1
  %42 = getelementptr inbounds nuw %struct.opj_j2k_enc, ptr %41, i32 0, i32 5
  %43 = load ptr, ptr %42, align 8, !tbaa !20
  %44 = load i32, ptr %8, align 4, !tbaa !3
  %45 = zext i32 %44 to i64
  %46 = load ptr, ptr %7, align 8, !tbaa !48
  %47 = call i64 @opj_stream_write_data(ptr noundef %39, ptr noundef %43, i64 noundef %45, ptr noundef %46)
  %48 = load i32, ptr %8, align 4, !tbaa !3
  %49 = zext i32 %48 to i64
  %50 = icmp ne i64 %47, %49
  br i1 %50, label %51, label %52

51:                                               ; preds = %38
  store i32 0, ptr %4, align 4
  store i32 1, ptr %12, align 4
  br label %60

52:                                               ; preds = %38
  %53 = load ptr, ptr %6, align 8, !tbaa !206
  %54 = load i64, ptr %10, align 8, !tbaa !85
  %55 = load ptr, ptr %7, align 8, !tbaa !48
  %56 = call i32 @opj_stream_seek(ptr noundef %53, i64 noundef %54, ptr noundef %55)
  %57 = icmp ne i32 %56, 0
  br i1 %57, label %59, label %58

58:                                               ; preds = %52
  store i32 0, ptr %4, align 4
  store i32 1, ptr %12, align 4
  br label %60

59:                                               ; preds = %52
  store i32 1, ptr %4, align 4
  store i32 1, ptr %12, align 4
  br label %60

60:                                               ; preds = %59, %58, %51, %37
  call void @llvm.lifetime.end.p0(i64 4, ptr %11) #10
  call void @llvm.lifetime.end.p0(i64 8, ptr %10) #10
  call void @llvm.lifetime.end.p0(i64 8, ptr %9) #10
  call void @llvm.lifetime.end.p0(i64 4, ptr %8) #10
  %61 = load i32, ptr %4, align 4
  ret i32 %61
}