; Function Attrs: nounwind uwtable
define internal range(i32 0, 2) i32 @opj_j2k_write_updated_tlm(ptr noundef readonly captures(none) %0, ptr noundef %1, ptr noundef %2) #3 {
  %4 = getelementptr inbounds nuw i8, ptr %0, i64 20
  %5 = load i32, ptr %4, align 4, !tbaa !12
  %6 = getelementptr inbounds nuw i8, ptr %0, i64 48
  %7 = load i32, ptr %6, align 8, !tbaa !12
  %8 = getelementptr inbounds nuw i8, ptr %0, i64 24
  %9 = load i64, ptr %8, align 8, !tbaa !12
  %10 = add nsw i64 %9, 6
  %11 = tail call i64 @opj_stream_tell(ptr noundef %1) #21
  %12 = tail call i32 @opj_stream_seek(ptr noundef %1, i64 noundef %10, ptr noundef %2) #21
  %.not16 = icmp eq i32 %12, 0
  br i1 %.not16, label %22, label %13

13:                                               ; preds = %3
  %.not = icmp eq i32 %5, 0
  %14 = select i1 %.not, i32 6, i32 5
  %15 = mul i32 %14, %7
  %16 = getelementptr inbounds nuw i8, ptr %0, i64 32
  %17 = load ptr, ptr %16, align 8, !tbaa !12
  %18 = zext i32 %15 to i64
  %19 = tail call i64 @opj_stream_write_data(ptr noundef %1, ptr noundef %17, i64 noundef %18, ptr noundef %2) #21
  %.not17 = icmp eq i64 %19, %18
  br i1 %.not17, label %20, label %22

20:                                               ; preds = %13
  %21 = tail call i32 @opj_stream_seek(ptr noundef %1, i64 noundef %11, ptr noundef %2) #21
  %.not18 = icmp ne i32 %21, 0
  %. = zext i1 %.not18 to i32
  br label %22

22:                                               ; preds = %20, %13, %3
  %.0 = phi i32 [ 0, %3 ], [ 0, %13 ], [ %., %20 ]
  ret i32 %.0
}